target datalayout = "e-m:e-p270:32:32-p271:32:32-p272:64:64-i64:64-i128:128-f80:128-n8:16:32:64-S128"
target triple = "x86_64-pc-linux-gnu"

%struct.mi_heap_s = type { ptr, ptr, i64, i32, i64, [2 x i64], %struct.mi_random_cxt_s, i64, i64, i64, ptr, i8, i8, [129 x ptr], [75 x %struct.mi_page_queue_s] }
%struct.mi_random_cxt_s = type { [16 x i32], [16 x i32], i32, i8 }
%struct.mi_page_queue_s = type { ptr, ptr, i64 }
%struct.mi_page_s = type { i32, i32, i8, i16, i16, %union.mi_page_flags_s, i8, ptr, ptr, i16, i8, i8, i64, ptr, i64, i64, ptr, ptr, [1 x ptr] }
%union.mi_page_flags_s = type { i8 }
%struct.mi_tld_s = type { i64, i8, ptr, ptr, %struct.mi_segments_tld_s, %struct.mi_stats_s }
%struct.mi_segments_tld_s = type { [36 x %struct.mi_span_queue_s], i64, i64, i64, i64, i64, ptr, ptr }
%struct.mi_span_queue_s = type { ptr, ptr, i64 }
%struct.mi_stats_s = type { %struct.mi_stat_count_s, %struct.mi_stat_count_s, %struct.mi_stat_count_s, %struct.mi_stat_count_s, %struct.mi_stat_count_s, %struct.mi_stat_count_s, %struct.mi_stat_count_s, %struct.mi_stat_count_s, %struct.mi_stat_count_s, %struct.mi_stat_count_s, %struct.mi_stat_count_s, %struct.mi_stat_count_s, %struct.mi_stat_count_s, %struct.mi_stat_count_s, %struct.mi_stat_count_s, %struct.mi_stat_counter_s, %struct.mi_stat_counter_s, %struct.mi_stat_counter_s, %struct.mi_stat_counter_s, %struct.mi_stat_counter_s, %struct.mi_stat_counter_s, %struct.mi_stat_counter_s, %struct.mi_stat_counter_s, %struct.mi_stat_counter_s, %struct.mi_stat_counter_s, %struct.mi_stat_counter_s, %struct.mi_stat_counter_s, %struct.mi_stat_counter_s, %struct.mi_stat_counter_s }
%struct.mi_stat_count_s = type { i64, i64, i64, i64 }
%struct.mi_stat_counter_s = type { i64, i64 }

; Function Attrs: inlinehint nounwind uwtable
define internal void @mi_page_set_heap(ptr noundef %0, ptr noundef %1) #1 {
  %3 = alloca ptr, align 8
  %4 = alloca ptr, align 8
  %5 = alloca i64, align 8
  store ptr %0, ptr %3, align 8, !tbaa !17
  store ptr %1, ptr %4, align 8, !tbaa !12
  %6 = load ptr, ptr %3, align 8, !tbaa !17
  %7 = getelementptr inbounds nuw %struct.mi_page_s, ptr %6, i32 0, i32 15
  %8 = load ptr, ptr %4, align 8, !tbaa !12
  %9 = ptrtoint ptr %8 to i64
  store i64 %9, ptr %5, align 8, !tbaa !3
  %10 = load i64, ptr %5, align 8
  store atomic i64 %10, ptr %7 release, align 8
  %11 = load ptr, ptr %4, align 8, !tbaa !12
  %12 = icmp ne ptr %11, null
  br i1 %12, label %13, label %19

13:                                               ; preds = %2
  %14 = load ptr, ptr %4, align 8, !tbaa !12
  %15 = getelementptr inbounds nuw %struct.mi_heap_s, ptr %14, i32 0, i32 12
  %16 = load i8, ptr %15, align 1, !tbaa !65
  %17 = load ptr, ptr %3, align 8, !tbaa !17
  %18 = getelementptr inbounds nuw %struct.mi_page_s, ptr %17, i32 0, i32 11
  store i8 %16, ptr %18, align 1, !tbaa !66
  br label %19

19:                                               ; preds = %13, %2
  ret void
}

; Function Attrs: inlinehint nounwind uwtable
define internal ptr @mi_page_heap(ptr noundef %0) #1 {
  %2 = alloca ptr, align 8
  %3 = alloca i64, align 8
  store ptr %0, ptr %2, align 8, !tbaa !17
  %4 = load ptr, ptr %2, align 8, !tbaa !17
  %5 = getelementptr inbounds nuw %struct.mi_page_s, ptr %4, i32 0, i32 15
  %6 = load atomic i64, ptr %5 monotonic, align 8
  store i64 %6, ptr %3, align 8
  %7 = load i64, ptr %3, align 8, !tbaa !3
  %8 = inttoptr i64 %7 to ptr
  ret ptr %8
}

; Function Attrs: inlinehint nounwind uwtable
define internal void @mi_page_set_has_aligned(ptr noundef %0, i1 noundef zeroext %1) #1 {
  %3 = alloca ptr, align 8
  %4 = alloca i8, align 1
  store ptr %0, ptr %3, align 8, !tbaa !17
  %5 = zext i1 %1 to i8
  store i8 %5, ptr %4, align 1, !tbaa !29
  %6 = load i8, ptr %4, align 1, !tbaa !29, !range !31, !noundef !32
  %7 = trunc i8 %6 to i1
  %8 = zext i1 %7 to i8
  %9 = load ptr, ptr %3, align 8, !tbaa !17
  %10 = getelementptr inbounds nuw %struct.mi_page_s, ptr %9, i32 0, i32 5
  %11 = load i8, ptr %10, align 2
  %12 = and i8 %8, 1
  %13 = shl i8 %12, 1
  %14 = and i8 %11, -3
  %15 = or i8 %14, %13
  store i8 %15, ptr %10, align 2
  ret void
}

; Function Attrs: nounwind uwtable
define hidden void @_mi_page_free(ptr noundef %0, ptr noundef %1, i1 noundef zeroext %2) #0 {
  %4 = alloca ptr, align 8
  %5 = alloca ptr, align 8
  %6 = alloca i8, align 1
  %7 = alloca ptr, align 8
  %8 = alloca ptr, align 8
  store ptr %0, ptr %4, align 8, !tbaa !17
  store ptr %1, ptr %5, align 8, !tbaa !14
  %9 = zext i1 %2 to i8
  store i8 %9, ptr %6, align 1, !tbaa !29
  %10 = load ptr, ptr %4, align 8, !tbaa !17
  call void @mi_page_set_has_aligned(ptr noundef %10, i1 noundef zeroext false) #10
  call void @llvm.lifetime.start.p0(i64 8, ptr %7) #6
  %11 = load ptr, ptr %4, align 8, !tbaa !17
  %12 = call ptr @mi_page_heap(ptr noundef %11) #10
  store ptr %12, ptr %7, align 8, !tbaa !12
  call void @llvm.lifetime.start.p0(i64 8, ptr %8) #6
  %13 = load ptr, ptr %7, align 8, !tbaa !12
  %14 = getelementptr inbounds nuw %struct.mi_heap_s, ptr %13, i32 0, i32 0
  %15 = load ptr, ptr %14, align 8, !tbaa !62
  %16 = getelementptr inbounds nuw %struct.mi_tld_s, ptr %15, i32 0, i32 4
  store ptr %16, ptr %8, align 8, !tbaa !63
  %17 = load ptr, ptr %5, align 8, !tbaa !14
  %18 = load ptr, ptr %4, align 8, !tbaa !17
  call void @mi_page_queue_remove(ptr noundef %17, ptr noundef %18) #10
  %19 = load ptr, ptr %4, align 8, !tbaa !17
  call void @mi_page_set_heap(ptr noundef %19, ptr noundef null) #10
  %20 = load ptr, ptr %4, align 8, !tbaa !17
  %21 = load i8, ptr %6, align 1, !tbaa !29, !range !31, !noundef !32
  %22 = trunc i8 %21 to i1
  %23 = load ptr, ptr %8, align 8, !tbaa !63
  call void @_mi_segment_page_free(ptr noundef %20, i1 noundef zeroext %22, ptr noundef %23) #10
  call void @llvm.lifetime.end.p0(i64 8, ptr %8) #6
  call void @llvm.lifetime.end.p0(i64 8, ptr %7) #6
  ret void
}